target datalayout = "e-m:e-p270:32:32-p271:32:32-p272:64:64-i64:64-i128:128-f80:128-n8:16:32:64-S128"
target triple = "x86_64-pc-linux-gnu"

%struct._wmem_tree_key_t = type { i32, ptr }
%struct.pdcp_ue_parameters = type { i32, i8, i8, i8, i8, i8, i8 }

@ue_parameters_tree = internal global ptr null, align 8

; Function Attrs: null_pointer_is_valid sspstrong uwtable
define hidden ptr @get_rlc_nr_drb_pdcp_mapping(i16 noundef zeroext %0, i8 noundef zeroext %1) #0 {
  %3 = alloca i16, align 2
  %4 = alloca i8, align 1
  %5 = alloca [2 x %struct._wmem_tree_key_t], align 16
  %6 = alloca i32, align 4
  %7 = alloca ptr, align 8
  store i16 %0, ptr %3, align 2
  store i8 %1, ptr %4, align 1
  call void @llvm.lifetime.start.p0(i64 32, ptr %5) #12
  call void @llvm.lifetime.start.p0(i64 4, ptr %6) #12
  call void @llvm.lifetime.start.p0(i64 8, ptr %7) #12
  %8 = load i8, ptr %4, align 1
  %9 = zext i8 %8 to i32
  %10 = shl i32 %9, 16
  %11 = load i16, ptr %3, align 2
  %12 = zext i16 %11 to i32
  %13 = or i32 %10, %12
  store i32 %13, ptr %6, align 4
  %14 = getelementptr [2 x %struct._wmem_tree_key_t], ptr %5, i64 0, i64 0
  %15 = getelementptr inbounds nuw %struct._wmem_tree_key_t, ptr %14, i32 0, i32 0
  store i32 1, ptr %15, align 16
  %16 = getelementptr [2 x %struct._wmem_tree_key_t], ptr %5, i64 0, i64 0
  %17 = getelementptr inbounds nuw %struct._wmem_tree_key_t, ptr %16, i32 0, i32 1
  store ptr %6, ptr %17, align 8
  %18 = getelementptr [2 x %struct._wmem_tree_key_t], ptr %5, i64 0, i64 1
  %19 = getelementptr inbounds nuw %struct._wmem_tree_key_t, ptr %18, i32 0, i32 0
  store i32 0, ptr %19, align 16
  %20 = getelementptr [2 x %struct._wmem_tree_key_t], ptr %5, i64 0, i64 1
  %21 = getelementptr inbounds nuw %struct._wmem_tree_key_t, ptr %20, i32 0, i32 1
  store ptr null, ptr %21, align 8
  %22 = load ptr, ptr @ue_parameters_tree, align 8
  %23 = getelementptr inbounds [2 x %struct._wmem_tree_key_t], ptr %5, i64 0, i64 0
  %24 = call ptr @wmem_tree_lookup32_array_le(ptr noundef %22, ptr noundef %23)
  store ptr %24, ptr %7, align 8
  %25 = load ptr, ptr %7, align 8
  %26 = icmp ne ptr %25, null
  br i1 %26, label %27, label %34

27:                                               ; preds = %2
  %28 = load ptr, ptr %7, align 8
  %29 = getelementptr inbounds nuw %struct.pdcp_ue_parameters, ptr %28, i32 0, i32 0
  %30 = load i32, ptr %29, align 4
  %31 = load i32, ptr %6, align 4
  %32 = icmp ne i32 %30, %31
  br i1 %32, label %33, label %34

33:                                               ; preds = %27
  store ptr null, ptr %7, align 8
  br label %34

34:                                               ; preds = %33, %27, %2
  %35 = load ptr, ptr %7, align 8
  call void @llvm.lifetime.end.p0(i64 8, ptr %7) #12
  call void @llvm.lifetime.end.p0(i64 4, ptr %6) #12
  call void @llvm.lifetime.end.p0(i64 32, ptr %5) #12
  ret ptr %35
}