; Function Attrs: null_pointer_is_valid sspstrong uwtable
define hidden ptr @get_rlc_nr_drb_pdcp_mapping(i16 noundef zeroext %0, i8 noundef zeroext %1) local_unnamed_addr #0 {
  %3 = alloca [2 x %struct._wmem_tree_key_t], align 16
  %4 = alloca i32, align 4
  call void @llvm.lifetime.start.p0(i64 32, ptr nonnull %3) #10
  call void @llvm.lifetime.start.p0(i64 4, ptr nonnull %4) #10
  %5 = zext i8 %1 to i32
  %6 = shl nuw nsw i32 %5, 16
  %7 = zext i16 %0 to i32
  %8 = or disjoint i32 %6, %7
  store i32 %8, ptr %4, align 4
  store i32 1, ptr %3, align 16
  %9 = getelementptr inbounds nuw i8, ptr %3, i64 8
  store ptr %4, ptr %9, align 8
  %10 = getelementptr inbounds nuw i8, ptr %3, i64 16
  store i32 0, ptr %10, align 16
  %11 = getelementptr inbounds nuw i8, ptr %3, i64 24
  store ptr null, ptr %11, align 8
  %12 = load ptr, ptr @ue_parameters_tree, align 8
  %13 = call ptr @wmem_tree_lookup32_array_le(ptr noundef %12, ptr noundef nonnull %3)
  %.not = icmp eq ptr %13, null
  br i1 %.not, label %17, label %14

14:                                               ; preds = %2
  %15 = load i32, ptr %13, align 4
  %16 = load i32, ptr %4, align 4
  %.not5 = icmp eq i32 %15, %16
  %spec.store.select = select i1 %.not5, ptr %13, ptr null
  br label %17

17:                                               ; preds = %14, %2
  %.0 = phi ptr [ %spec.store.select, %14 ], [ null, %2 ]
  call void @llvm.lifetime.end.p0(i64 4, ptr nonnull %4) #10
  call void @llvm.lifetime.end.p0(i64 32, ptr nonnull %3) #10
  ret ptr %.0
}